; ModuleID = '531.c'
source_filename = "531.c"
target datalayout = "e-m:e-p270:32:32-p271:32:32-p272:64:64-i64:64-f80:128-n8:16:32:64-S128"
target triple = "x86_64-pc-linux-gnu"

@x1 = common dso_local global i32 0, align 4
@yy1 = common dso_local global i32 0, align 4
@.str = private unnamed_addr constant [5 x i8] c"%d%d\00", align 1
@.str.1 = private unnamed_addr constant [3 x i8] c"%d\00", align 1
@x = common dso_local global i32 0, align 4
@y = common dso_local global i32 0, align 4
@.str.2 = private unnamed_addr constant [4 x i8] c"%d\0A\00", align 1

; Function Attrs: noinline nounwind uwtable
define dso_local void @next() #0 {
  %1 = load i32, i32* @x1, align 4
  %2 = icmp eq i32 %1, 0
  br i1 %2, label %3, label %7

3:                                                ; preds = %0
  %4 = load i32, i32* @yy1, align 4
  %5 = icmp eq i32 %4, 1
  br i1 %5, label %6, label %7

6:                                                ; preds = %3
  store i32 1, i32* @x1, align 4
  store i32 0, i32* @yy1, align 4
  br label %31

7:                                                ; preds = %3, %0
  %8 = load i32, i32* @x1, align 4
  %9 = icmp eq i32 %8, 1
  br i1 %9, label %10, label %14

10:                                               ; preds = %7
  %11 = load i32, i32* @yy1, align 4
  %12 = icmp eq i32 %11, 0
  br i1 %12, label %13, label %14

13:                                               ; preds = %10
  store i32 0, i32* @x1, align 4
  store i32 -1, i32* @yy1, align 4
  br label %30

14:                                               ; preds = %10, %7
  %15 = load i32, i32* @x1, align 4
  %16 = icmp eq i32 %15, 0
  br i1 %16, label %17, label %21

17:                                               ; preds = %14
  %18 = load i32, i32* @yy1, align 4
  %19 = icmp eq i32 %18, -1
  br i1 %19, label %20, label %21

20:                                               ; preds = %17
  store i32 -1, i32* @x1, align 4
  store i32 0, i32* @yy1, align 4
  br label %29

21:                                               ; preds = %17, %14
  %22 = load i32, i32* @x1, align 4
  %23 = icmp eq i32 %22, -1
  br i1 %23, label %24, label %28

24:                                               ; preds = %21
  %25 = load i32, i32* @yy1, align 4
  %26 = icmp eq i32 %25, 0
  br i1 %26, label %27, label %28

27:                                               ; preds = %24
  store i32 0, i32* @x1, align 4
  store i32 1, i32* @yy1, align 4
  br label %28

28:                                               ; preds = %27, %24, %21
  br label %29

29:                                               ; preds = %28, %20
  br label %30

30:                                               ; preds = %29, %13
  br label %31

31:                                               ; preds = %30, %6
  ret void
}

; Function Attrs: noinline nounwind uwtable
define dso_local void @main() #0 {
  %1 = alloca [200 x [200 x i32]], align 16
  %2 = alloca i32, align 4
  %3 = alloca i32, align 4
  %4 = alloca i32, align 4
  %5 = alloca i32, align 4
  %6 = alloca i32, align 4
  %7 = bitcast [200 x [200 x i32]]* %1 to i8*
  call void @llvm.memset.p0i8.i64(i8* align 16 %7, i8 0, i64 160000, i1 false)
  %8 = call i32 (i8*, ...) @__isoc99_scanf(i8* getelementptr inbounds ([5 x i8], [5 x i8]* @.str, i64 0, i64 0), i32* %2, i32* %3)
  store i32 1, i32* %4, align 4
  br label %9

9:                                                ; preds = %30, %0
  %10 = load i32, i32* %4, align 4
  %11 = load i32, i32* %2, align 4
  %12 = icmp sle i32 %10, %11
  br i1 %12, label %13, label %33

13:                                               ; preds = %9
  store i32 1, i32* %5, align 4
  br label %14

14:                                               ; preds = %26, %13
  %15 = load i32, i32* %5, align 4
  %16 = load i32, i32* %3, align 4
  %17 = icmp sle i32 %15, %16
  br i1 %17, label %18, label %29

18:                                               ; preds = %14
  %19 = load i32, i32* %4, align 4
  %20 = sext i32 %19 to i64
  %21 = getelementptr inbounds [200 x [200 x i32]], [200 x [200 x i32]]* %1, i64 0, i64 %20
  %22 = load i32, i32* %5, align 4
  %23 = sext i32 %22 to i64
  %24 = getelementptr inbounds [200 x i32], [200 x i32]* %21, i64 0, i64 %23
  %25 = call i32 (i8*, ...) @__isoc99_scanf(i8* getelementptr inbounds ([3 x i8], [3 x i8]* @.str.1, i64 0, i64 0), i32* %24)
  br label %26

26:                                               ; preds = %18
  %27 = load i32, i32* %5, align 4
  %28 = add nsw i32 %27, 1
  store i32 %28, i32* %5, align 4
  br label %14

29:                                               ; preds = %14
  br label %30

30:                                               ; preds = %29
  %31 = load i32, i32* %4, align 4
  %32 = add nsw i32 %31, 1
  store i32 %32, i32* %4, align 4
  br label %9

33:                                               ; preds = %9
  store i32 0, i32* @x1, align 4
  store i32 1, i32* @yy1, align 4
  store i32 1, i32* @x, align 4
  store i32 0, i32* @y, align 4
  store i32 1, i32* %6, align 4
  br label %34

34:                                               ; preds = %79, %33
  %35 = load i32, i32* %6, align 4
  %36 = load i32, i32* %2, align 4
  %37 = load i32, i32* %3, align 4
  %38 = mul nsw i32 %36, %37
  %39 = icmp sle i32 %35, %38
  br i1 %39, label %40, label %80

40:                                               ; preds = %34
  %41 = load i32, i32* @x, align 4
  %42 = load i32, i32* @x1, align 4
  %43 = add nsw i32 %41, %42
  store i32 %43, i32* @x, align 4
  %44 = load i32, i32* @y, align 4
  %45 = load i32, i32* @yy1, align 4
  %46 = add nsw i32 %44, %45
  store i32 %46, i32* @y, align 4
  %47 = load i32, i32* @x, align 4
  %48 = sext i32 %47 to i64
  %49 = getelementptr inbounds [200 x [200 x i32]], [200 x [200 x i32]]* %1, i64 0, i64 %48
  %50 = load i32, i32* @y, align 4
  %51 = sext i32 %50 to i64
  %52 = getelementptr inbounds [200 x i32], [200 x i32]* %49, i64 0, i64 %51
  %53 = load i32, i32* %52, align 4
  %54 = icmp eq i32 %53, 0
  br i1 %54, label %55, label %62

55:                                               ; preds = %40
  %56 = load i32, i32* @x, align 4
  %57 = load i32, i32* @x1, align 4
  %58 = sub nsw i32 %56, %57
  store i32 %58, i32* @x, align 4
  %59 = load i32, i32* @y, align 4
  %60 = load i32, i32* @yy1, align 4
  %61 = sub nsw i32 %59, %60
  store i32 %61, i32* @y, align 4
  call void @next()
  br label %79

62:                                               ; preds = %40
  %63 = load i32, i32* @x, align 4
  %64 = sext i32 %63 to i64
  %65 = getelementptr inbounds [200 x [200 x i32]], [200 x [200 x i32]]* %1, i64 0, i64 %64
  %66 = load i32, i32* @y, align 4
  %67 = sext i32 %66 to i64
  %68 = getelementptr inbounds [200 x i32], [200 x i32]* %65, i64 0, i64 %67
  %69 = load i32, i32* %68, align 4
  %70 = call i32 (i8*, ...) @printf(i8* getelementptr inbounds ([4 x i8], [4 x i8]* @.str.2, i64 0, i64 0), i32 %69)
  %71 = load i32, i32* @x, align 4
  %72 = sext i32 %71 to i64
  %73 = getelementptr inbounds [200 x [200 x i32]], [200 x [200 x i32]]* %1, i64 0, i64 %72
  %74 = load i32, i32* @y, align 4
  %75 = sext i32 %74 to i64
  %76 = getelementptr inbounds [200 x i32], [200 x i32]* %73, i64 0, i64 %75
  store i32 0, i32* %76, align 4
  %77 = load i32, i32* %6, align 4
  %78 = add nsw i32 %77, 1
  store i32 %78, i32* %6, align 4
  br label %79

79:                                               ; preds = %62, %55
  br label %34

80:                                               ; preds = %34
  ret void
}

; Function Attrs: argmemonly nounwind willreturn
declare void @llvm.memset.p0i8.i64(i8* nocapture writeonly, i8, i64, i1 immarg) #1

declare dso_local i32 @__isoc99_scanf(i8*, ...) #2

declare dso_local i32 @printf(i8*, ...) #2


!llvm.module.flags = !{!0}
!llvm.ident = !{!1}

!0 = !{i32 1, !"wchar_size", i32 4}
!1 = !{!"clang version 10.0.0-4ubuntu1 "}
